target datalayout = "e-m:e-p270:32:32-p271:32:32-p272:64:64-i64:64-i128:128-f80:128-n8:16:32:64-S128"
target triple = "x86_64-unknown-linux-gnu"

%class.btGeneric6DofSpring2Constraint = type <{ %class.btTypedConstraint, %class.btTransform, %class.btTransform, [3 x %class.btJacobianEntry], [3 x %class.btJacobianEntry], %class.btTranslationalLimitMotor2, [3 x %class.btRotationalLimitMotor2], i32, %class.btTransform, %class.btTransform, %class.btVector3, [3 x %class.btVector3], %class.btVector3, float, float, i8, [3 x i8], i32, [4 x i8] }>
%class.btTypedConstraint = type { ptr, %struct.btTypedObject, i32, %union.anon.0, float, i8, i8, i32, ptr, ptr, float, float, ptr }
%struct.btTypedObject = type { i32 }
%union.anon.0 = type { ptr }
%class.btJacobianEntry = type { %class.btVector3, %class.btVector3, %class.btVector3, %class.btVector3, %class.btVector3, float }
%class.btTranslationalLimitMotor2 = type { %class.btVector3, %class.btVector3, %class.btVector3, %class.btVector3, %class.btVector3, %class.btVector3, %class.btVector3, [3 x i8], [3 x i8], [3 x i8], %class.btVector3, %class.btVector3, [3 x i8], %class.btVector3, [3 x i8], %class.btVector3, %class.btVector3, %class.btVector3, %class.btVector3, %class.btVector3, %class.btVector3, [3 x i32] }
%class.btRotationalLimitMotor2 = type { float, float, float, float, float, float, float, i8, float, float, i8, float, i8, float, i8, float, i8, float, float, float, float, i32 }
%class.btTransform = type { %class.btMatrix3x3, %class.btVector3 }
%class.btMatrix3x3 = type { [3 x %class.btVector3] }
%class.btVector3 = type { [4 x float] }
%class.btCollisionObject = type <{ ptr, %class.btTransform, %class.btTransform, %class.btVector3, %class.btVector3, %class.btVector3, i32, float, ptr, ptr, ptr, ptr, i32, i32, i32, i32, i32, float, float, float, float, float, float, float, i32, [4 x i8], ptr, i32, i32, i32, float, float, float, i32, [4 x i8], %class.btAlignedObjectArray, i32, %class.btVector3, [4 x i8] }>
%class.btAlignedObjectArray = type <{ %class.btAlignedAllocator, [3 x i8], i32, i32, [4 x i8], ptr, i8, [7 x i8] }>
%class.btAlignedAllocator = type { i8 }

; Function Attrs: mustprogress nounwind uwtable
define linkonce_odr dso_local noundef nonnull align 4 dereferenceable(64) ptr @_ZNK11btRigidBody24getCenterOfMassTransformEv(ptr noundef nonnull align 8 dereferenceable(744) %this) #1 comdat align 2 {
entry:
  %this.addr = alloca ptr, align 8
  store ptr %this, ptr %this.addr, align 8
  %this1 = load ptr, ptr %this.addr, align 8
  %m_worldTransform = getelementptr inbounds %class.btCollisionObject, ptr %this1, i32 0, i32 1
  ret ptr %m_worldTransform
}

; Function Attrs: mustprogress nounwind uwtable
define linkonce_odr dso_local noundef nonnull align 4 dereferenceable(48) ptr @_ZN11btMatrix3x3aSERKS_(ptr noundef nonnull align 4 dereferenceable(48) %this, ptr noundef nonnull align 4 dereferenceable(48) %other) #1 comdat align 2 {
entry:
  %this.addr = alloca ptr, align 8
  %other.addr = alloca ptr, align 8
  store ptr %this, ptr %this.addr, align 8
  store ptr %other, ptr %other.addr, align 8
  %this1 = load ptr, ptr %this.addr, align 8
  %0 = load ptr, ptr %other.addr, align 8
  %m_el = getelementptr inbounds %class.btMatrix3x3, ptr %0, i32 0, i32 0
  %arrayidx = getelementptr inbounds [3 x %class.btVector3], ptr %m_el, i64 0, i64 0
  %m_el2 = getelementptr inbounds %class.btMatrix3x3, ptr %this1, i32 0, i32 0
  %arrayidx3 = getelementptr inbounds [3 x %class.btVector3], ptr %m_el2, i64 0, i64 0
  call void @llvm.memcpy.p0.p0.i64(ptr align 4 %arrayidx3, ptr align 4 %arrayidx, i64 16, i1 false)
  %1 = load ptr, ptr %other.addr, align 8
  %m_el4 = getelementptr inbounds %class.btMatrix3x3, ptr %1, i32 0, i32 0
  %arrayidx5 = getelementptr inbounds [3 x %class.btVector3], ptr %m_el4, i64 0, i64 1
  %m_el6 = getelementptr inbounds %class.btMatrix3x3, ptr %this1, i32 0, i32 0
  %arrayidx7 = getelementptr inbounds [3 x %class.btVector3], ptr %m_el6, i64 0, i64 1
  call void @llvm.memcpy.p0.p0.i64(ptr align 4 %arrayidx7, ptr align 4 %arrayidx5, i64 16, i1 false)
  %2 = load ptr, ptr %other.addr, align 8
  %m_el8 = getelementptr inbounds %class.btMatrix3x3, ptr %2, i32 0, i32 0
  %arrayidx9 = getelementptr inbounds [3 x %class.btVector3], ptr %m_el8, i64 0, i64 2
  %m_el10 = getelementptr inbounds %class.btMatrix3x3, ptr %this1, i32 0, i32 0
  %arrayidx11 = getelementptr inbounds [3 x %class.btVector3], ptr %m_el10, i64 0, i64 2
  call void @llvm.memcpy.p0.p0.i64(ptr align 4 %arrayidx11, ptr align 4 %arrayidx9, i64 16, i1 false)
  ret ptr %this1
}

; Function Attrs: mustprogress uwtable
define dso_local void @_ZN30btGeneric6DofSpring2Constraint19calculateTransformsEv(ptr noundef nonnull align 8 dereferenceable(1484) %this) #2 align 2 {
entry:
  %this.addr = alloca ptr, align 8
  store ptr %this, ptr %this.addr, align 8
  %this1 = load ptr, ptr %this.addr, align 8
  %m_rbA = getelementptr inbounds %class.btTypedConstraint, ptr %this1, i32 0, i32 8
  %0 = load ptr, ptr %m_rbA, align 8
  %call = call noundef nonnull align 4 dereferenceable(64) ptr @_ZNK11btRigidBody24getCenterOfMassTransformEv(ptr noundef nonnull align 8 dereferenceable(744) %0)
  %m_rbB = getelementptr inbounds %class.btTypedConstraint, ptr %this1, i32 0, i32 9
  %1 = load ptr, ptr %m_rbB, align 8
  %call2 = call noundef nonnull align 4 dereferenceable(64) ptr @_ZNK11btRigidBody24getCenterOfMassTransformEv(ptr noundef nonnull align 8 dereferenceable(744) %1)
  call void @_ZN30btGeneric6DofSpring2Constraint19calculateTransformsERK11btTransformS2_(ptr noundef nonnull align 8 dereferenceable(1484) %this1, ptr noundef nonnull align 4 dereferenceable(64) %call, ptr noundef nonnull align 4 dereferenceable(64) %call2)
  ret void
}

; Function Attrs: mustprogress uwtable
define linkonce_odr dso_local noundef nonnull align 4 dereferenceable(64) ptr @_ZN11btTransformaSERKS_(ptr noundef nonnull align 4 dereferenceable(64) %this, ptr noundef nonnull align 4 dereferenceable(64) %other) #2 comdat align 2 {
entry:
  %this.addr = alloca ptr, align 8
  %other.addr = alloca ptr, align 8
  store ptr %this, ptr %this.addr, align 8
  store ptr %other, ptr %other.addr, align 8
  %this1 = load ptr, ptr %this.addr, align 8
  %0 = load ptr, ptr %other.addr, align 8
  %m_basis = getelementptr inbounds %class.btTransform, ptr %0, i32 0, i32 0
  %m_basis2 = getelementptr inbounds %class.btTransform, ptr %this1, i32 0, i32 0
  %call = call noundef nonnull align 4 dereferenceable(48) ptr @_ZN11btMatrix3x3aSERKS_(ptr noundef nonnull align 4 dereferenceable(48) %m_basis2, ptr noundef nonnull align 4 dereferenceable(48) %m_basis)
  %1 = load ptr, ptr %other.addr, align 8
  %m_origin = getelementptr inbounds %class.btTransform, ptr %1, i32 0, i32 1
  %m_origin3 = getelementptr inbounds %class.btTransform, ptr %this1, i32 0, i32 1
  call void @llvm.memcpy.p0.p0.i64(ptr align 4 %m_origin3, ptr align 4 %m_origin, i64 16, i1 false)
  ret ptr %this1
}

; Function Attrs: mustprogress uwtable
define dso_local void @_ZN30btGeneric6DofSpring2Constraint9setFramesERK11btTransformS2_(ptr noundef nonnull align 8 dereferenceable(1484) %this, ptr noundef nonnull align 4 dereferenceable(64) %frameA, ptr noundef nonnull align 4 dereferenceable(64) %frameB) #2 align 2 {
entry:
  %this.addr = alloca ptr, align 8
  %frameA.addr = alloca ptr, align 8
  %frameB.addr = alloca ptr, align 8
  store ptr %this, ptr %this.addr, align 8
  store ptr %frameA, ptr %frameA.addr, align 8
  store ptr %frameB, ptr %frameB.addr, align 8
  %this1 = load ptr, ptr %this.addr, align 8
  %0 = load ptr, ptr %frameA.addr, align 8
  %m_frameInA = getelementptr inbounds %class.btGeneric6DofSpring2Constraint, ptr %this1, i32 0, i32 1
  %call = call noundef nonnull align 4 dereferenceable(64) ptr @_ZN11btTransformaSERKS_(ptr noundef nonnull align 4 dereferenceable(64) %m_frameInA, ptr noundef nonnull align 4 dereferenceable(64) %0)
  %1 = load ptr, ptr %frameB.addr, align 8
  %m_frameInB = getelementptr inbounds %class.btGeneric6DofSpring2Constraint, ptr %this1, i32 0, i32 2
  %call2 = call noundef nonnull align 4 dereferenceable(64) ptr @_ZN11btTransformaSERKS_(ptr noundef nonnull align 4 dereferenceable(64) %m_frameInB, ptr noundef nonnull align 4 dereferenceable(64) %1)
  %vtable = load ptr, ptr %this1, align 8
  %vfn = getelementptr inbounds ptr, ptr %vtable, i64 2
  %2 = load ptr, ptr %vfn, align 8
  call void %2(ptr noundef nonnull align 8 dereferenceable(1484) %this1)
  call void @_ZN30btGeneric6DofSpring2Constraint19calculateTransformsEv(ptr noundef nonnull align 8 dereferenceable(1484) %this1)
  ret void
}